******************************************************************************
              TMS320C55x Linker PC v4.3.8                      
******************************************************************************
>> Linked Thu Feb 28 08:38:16 2013

OUTPUT FILE NAME:   <randGenC.out>
ENTRY POINT SYMBOL: "reset_isr"  address: 000447b0


MEMORY CONFIGURATION

         name            origin    length      used     unused   attr    fill
                        (bytes)   (bytes)    (bytes)   (bytes)
----------------------  --------  ---------  --------  --------  ----  --------
  MMR                   00000000   000000c0  00000000  000000c0  RWIX
  VECS                  000000c0   00000100  00000100  00000000  RWIX
  DARAM0                000001c0   00003e40  00002300  00001b40  RWIX
  DARAM1                00004000   00002000  00000100  00001f00  RWIX
  DARAM2                00006000   00002000  00000000  00002000  RWIX
  DARAM3                00008000   00008000  00000b0e  000074f2  RWIX
  SARAM0                00010000   00010000  00000000  00010000  RWIX
  SARAM1                00020000   00010000  00000000  00010000  RWIX
  SARAM2                00030000   00010000  00000000  00010000  RWIX
  SARAM3                00040000   00010000  00005594  0000aa6c  RWIX
  CE01                  00100000   00020000  00000000  00020000  RWIX
  CE02                  00120000   00020000  00000000  00020000  RWIX
  CE03                  00140000   00020000  00000000  00020000  RWIX
  CE1                   00400000   00100000  00000000  00100000  RWIX
  CE2                   00800000   00400000  00000000  00400000  RWIX
  CE3                   00c00000   003f8000  00000000  003f8000  RWIX
  PDROM                 00ff8000   00007f00  00000000  00007f00  RWIX


SECTION ALLOCATION MAP
(Addresses surrounded by []'s are displayed for convenience only!)

output                                                          attributes/
section   page  orgn(bytes) orgn(words) len(bytes) len(words)   input sections
--------  ----  ----------- ----------- ---------- ----------   --------------
vectors      0     000000c0  [ 00000060 ] 00000100          *   
                   000000c0  [ 00000060 ] 00000100          *   rts55x.lib : vectors.obj (vectors)

.sysmem      0   [ 000001c0 ]  000000e0          *   00001000   UNINITIALIZED
                 [ 000001c0 ]  000000e0          *   00001000   --HOLE--

.stack       0   [ 000021c0 ]  000010e0          *   00000100   UNINITIALIZED
                 [ 000021c0 ]  000010e0          *   00000100   --HOLE--

.sysstack 
*            0   [ 000023c0 ]  000011e0          *   00000080   UNINITIALIZED
                 [ 000023c0 ]  000011e0          *   00000080   --HOLE--

vector       0     00004000  [ 00002000 ] 00000100          *   
                   00004000  [ 00002000 ] 00000100          *   vector.obj (vector)

.data        0   [ 00004000 ]  00002000          *   00000000   UNINITIALIZED

.bss         0   [ 00008000 ]  00004000          *   00000587   UNINITIALIZED
                 [ 00008000 ]  00004000          *   00000300   randGenCTest.obj (.bss)
                 [ 00008600 ]  00004300          *   00000119   rts55x.lib : defs.obj (.bss)
                 [ 00008832 ]  00004419          *   000000d0              : trgdrv.obj (.bss)
                 [ 000089d2 ]  000044e9          *   00000001   myC55xUtil.lib : i2s.obj (.bss)
                 [ 000089d4 ]  000044ea          *   00000071   rts55x.lib : lowlev.obj (.bss)
                 [ 00008ab6 ]  0000455b          *   00000001              : fopen.obj (.bss)
                 [ 00008ab8 ]  0000455c          *   00000016   myC55xUtil.lib : dma.obj (.bss)
                 [ 00008ae4 ]  00004572          *   00000006   rts55x.lib : memory.obj (.bss)
                 [ 00008af0 ]  00004578          *   00000004              : _lock.obj (.bss)
                 [ 00008af8 ]  0000457c          *   00000004              : exit.obj (.bss)
                 [ 00008b00 ]  00004580          *   00000003   myC55xUtil.lib : AIC3204_init.obj (.bss)
                 [ 00008b06 ]  00004583          *   00000001   --HOLE--
                 [ 00008b08 ]  00004584          *   00000003   rand.obj (.bss)

.text        0     00040000  [ 00020000 ] 00004e88          *   
                   00040000  [ 00020000 ] 00001598          *   rts55x.lib : _printfi.obj (.text)
                   00041598  [ 00020acc ] 00000543          *              : lowlev.obj (.text)
                   00041adb  [ 00020d6d+] 00000528          *              : trgdrv.obj (.text)
                   00042003  [ 00021001+] 000004b5          *              : memory.obj (.text)
                   000424b8  [ 0002125c ] 000004a3          *   myC55xUtil.lib : dma.obj (.text)
                   0004295b  [ 000214ad+] 0000036c          *   rts55x.lib : divd.obj (.text)
                   00042cc7  [ 00021663+] 0000032e          *   myC55xUtil.lib : AIC3204_init.obj (.text)
                   00042ff5  [ 000217fa+] 00000298          *                  : i2s_register.obj (.text)
                   0004328d  [ 00021946+] 0000027f          *   rts55x.lib : fopen.obj (.text)
                   0004350c  [ 00021a86 ] 0000025e          *              : llmpy.obj (.text)
                   0004376a  [ 00021bb5 ] 00000259          *              : addd.obj (.text)
                   000439c3  [ 00021ce1+] 00000252          *   randGenCTest.obj (.text)
                   00043c15  [ 00021e0a+] 000001ea          *   rts55x.lib : cmpd.obj (.text)
                   00043dff  [ 00021eff+] 00000163          *              : fputs.obj (.text)
                   00043f62  [ 00021fb1 ] 0000014c          *              : mpyd.obj (.text)
                   000440ae  [ 00022057 ] 000000e6          *              : setvbuf.obj (.text)
                   00044194  [ 000220ca ] 000000dd          *              : _io_perm.obj (.text)
                   00044271  [ 00022138+] 000000c8          *              : frcmpyd_div.obj (.text)
                   00044339  [ 0002219c+] 000000c2          *              : fflush.obj (.text)
                   000443fb  [ 000221fd+] 000000bb          *   rand.obj (.text)
                   000444b6  [ 0002225b ] 000000ba          *   rts55x.lib : trgmsg.obj (.text:CIO_breakpoint)
                   00044570  [ 000222b8 ] 000000a6          *              : fputc.obj (.text)
                   00044616  [ 0002230b ] 000000a1          *              : divul.obj (.text)
                   000446b7  [ 0002235b+] 0000007d          *              : ltoa.obj (.text)
                   00044734  [ 0002239a ] 0000007b          *              : fclose.obj (.text)
                   000447af  [ 000223d7 ] 00000001          *   --HOLE-- [fill = 20]
                   000447b0  [ 000223d8 ] 00000079          *   vector.obj (.text)
                   00044829  [ 00022414+] 00000076          *   rts55x.lib : frcmpyd.obj (.text)
                   0004489f  [ 0002244f+] 00000072          *              : remul.obj (.text)
                   00044911  [ 00022488+] 0000006f          *              : fixdli.obj (.text)
                   00044980  [ 000224c0 ] 0000006d          *              : trgmsg.obj (.text)
                   000449ed  [ 000224f6+] 0000006b          *              : fseek.obj (.text)
                   00044a58  [ 0002252c ] 00000067          *              : fltlid.obj (.text)
                   00044abf  [ 0002255f+] 0000005c          *              : atoi.obj (.text)
                   00044b1b  [ 0002258d+] 00000051          *   myC55xUtil.lib : i2s.obj (.text)
                   00044b6c  [ 000225b6 ] 00000050          *   rts55x.lib : printf.obj (.text)
                   00044bbc  [ 000225de ] 0000004d          *              : autoinit.obj (.text)
                   00044c09  [ 00022604+] 0000004b          *              : args_main.obj (.text)
                   00044c54  [ 0002262a ] 0000004b          *              : remli.obj (.text)
                   00044c9f  [ 0002264f+] 00000048          *              : divli.obj (.text)
                   00044ce7  [ 00022673+] 0000003f          *              : memcpy.obj (.text)
                   00044d26  [ 00022693 ] 0000003e          *              : exit.obj (.text)
                   00044d64  [ 000226b2 ] 00000034          *              : boot.obj (.text)
                   00044d98  [ 000226cc ] 0000002a          *              : fixdi.obj (.text)
                   00044dc2  [ 000226e1 ] 0000002a          *              : udiv.obj (.text)
                   00044dec  [ 000226f6 ] 00000023          *              : memccpy.obj (.text)
                   00044e0f  [ 00022707+] 0000001c          *              : isinf.obj (.text)
                   00044e2b  [ 00022715+] 00000014          *              : subd.obj (.text)
                   00044e3f  [ 0002271f+] 00000013          *              : lmpy.obj (.text)
                   00044e52  [ 00022729 ] 00000012          *              : _lock.obj (.text)
                   00044e64  [ 00022732 ] 00000010          *              : negd.obj (.text)
                   00044e74  [ 0002273a ] 0000000a          *              : remove.obj (.text)
                   00044e7e  [ 0002273f ] 00000007          *              : exit.obj (.text:CIO_breakpoint)
                   00044e85  [ 00022742+] 00000002          *              : vectors.obj (.text)
                   00044e87  [ 00022743 ] 00000001          *   --HOLE-- [fill = 20]

.const       0   [ 00044e88 ]  00022744          *   000001d6   
                 [ 00044e88 ]  00022744          *   00000101   rts55x.lib : ctype.obj (.const:__ctypes_)
                 [ 0004508a ]  00022845          *   00000001   --HOLE-- [fill = 0]
                 [ 0004508c ]  00022846          *   00000093   randGenCTest.obj (.const:.string)
                 [ 000451b2 ]  000228d9          *   00000001   --HOLE-- [fill = 0]
                 [ 000451b4 ]  000228da          *   00000024   rts55x.lib : _printfi.obj (.const:.string)
                 [ 000451fc ]  000228fe          *   0000000c              : _printfi.obj (.const)
                 [ 00045214 ]  0002290a          *   00000008              : divd.obj (.const:_initial_approx$1)
                 [ 00045224 ]  00022912          *   00000002              : fputs.obj (.const:.string)
                 [ 00045228 ]  00022914          *   00000002   rand.obj (.const)
                 [ 0004522c ]  00022916          *   00000002   rts55x.lib : divd.obj (.const)
                 [ 00045230 ]  00022918          *   00000002              : fltlid.obj (.const)

.cio         0   [ 00045238 ]  0002291c          *   00000120   UNINITIALIZED
                 [ 00045238 ]  0002291c          *   00000120   rts55x.lib : trgmsg.obj (.cio)

.cinit       0   [ 00045478 ]  00022a3c          *   00000090   
                 [ 00045478 ]  00022a3c          *   0000002d   rts55x.lib : lowlev.obj (.cinit)
                 [ 000454d2 ]  00022a69          *   0000002a              : defs.obj (.cinit)
                 [ 00045526 ]  00022a93          *   00000018   myC55xUtil.lib : dma.obj (.cinit)
                 [ 00045556 ]  00022aab          *   0000000a   rts55x.lib : _lock.obj (.cinit)
                 [ 0004556a ]  00022ab5          *   0000000a              : exit.obj (.cinit)
                 [ 0004557e ]  00022abf          *   00000004   myC55xUtil.lib : i2s.obj (.cinit)
                 [ 00045586 ]  00022ac3          *   00000004   rts55x.lib : fopen.obj (.cinit)
                 [ 0004558e ]  00022ac7          *   00000004              : memory.obj (.cinit)
                 [ 00045596 ]  00022acb          *   00000001   --HOLE-- [fill = 0]


GLOBAL SYMBOLS: SORTED ALPHABETICALLY BY Name 

abs. value/
byte addr   word addr   name
---------   ---------   ----
00000002                $TI_capability$C5500$CallingConvention
00000002                $TI_capability$C5500$MemoryModel
00000001                $TI_capability_requires_rev3
            00004000    .bss
            00002000    .data
00040000                .text
00044e7f                C$$EXIT
0004456b                C$$IO$$
00044e3f                I$$LMPY
00044dc2                I$$UDIV
00044dd7                I$$UMOD
00042cc7                _AIC3204_init
            000044e9    _Buf_Address
            0000456c    _CurrentRxL_DMAChannel
            0000456d    _CurrentRxR_DMAChannel
            0000456e    _CurrentTxL_DMAChannel
            0000456f    _CurrentTxR_DMAChannel
0004279d                _DMA_Isr
00041fa5                _HOSTclock
00041f3a                _HOSTclose
00041e85                _HOSTlseek
00041de6                _HOSTopen
00041d59                _HOSTread
00041cab                _HOSTrename
00041c4d                _HOSTtime
00041be3                _HOSTunlink
00041b56                _HOSTwrite
00004000                _RST
            00004180    _RcvL1
            00004240    _RcvL2
            000041e0    _RcvR1
            000042a0    _RcvR2
000000c0                _Reset
            0000455c    _RxL1_DMA_address
            0000455e    _RxL2_DMA_address
            00004560    _RxR1_DMA_address
            00004562    _RxR2_DMA_address
            00004564    _TxL1_DMA_address
            00004566    _TxL2_DMA_address
            00004568    _TxR1_DMA_address
            0000456a    _TxR2_DMA_address
            00004000    _XmitL1
            000040c0    _XmitL2
            00004060    _XmitR1
            00004120    _XmitR2
            0002291c    __CIOBUF_
            000011e0    __STACK_END
00000200                __STACK_SIZE
00002000                __SYSMEM_SIZE
00000100                __SYSSTACK_SIZE
ffffffff                ___binit__
            00004000    ___bss__
ffffffff                ___c_args__
            00022a3c    ___cinit__
            00002000    ___data__
            00002000    ___edata__
            00004587    ___end__
00044e88                ___etext__
00044e0f                ___isinf
ffffffff                ___pinit__
00040000                ___text__
0004376a                __addd
00044c09                __args_main
000433ae                __cleanup
            0000457c    __cleanup_ptr
00043da7                __cmpd
            00022744    __ctypes_
0004297d                __divd
00044c9f                __divli
00043735                __divlli
00044dc2                __divu
00044616                __divul
00043641                __divull
00044339                __doflush
            0000457e    __dtors_ptr
00043d73                __eqld
00044d98                __fixdi
00044911                __fixdli
00044a58                __fltlid
00044829                __frcmpyd
00044271                __frcmpyd_div
            00004418    __ft_end
            00004300    __ftable
00043d29                __geqd
00043cde                __gtrd
00043c91                __leqd
            00004578    __lock
00043c49                __lssd
00043f62                __mpyd
00044e3f                __mpyli
00043589                __mpylli
00044e64                __negd
00043c15                __neqd
00044e62                __nop
00041356                __printfi
00044214                __rd_ok
00044e5a                __register_lock
00044e52                __register_unlock
00044c54                __remli
0004355a                __remlli
00044dd7                __remu
0004489f                __remul
0004350c                __remull
            000010e0    __stack
00044e2b                __subd
            000000e0    __sys_memory
            000011e0    __sysstack
            00004378    __tmpnams
            0000457a    __unlock
00044194                __wrt_ok
00044e7e                _abort
000419eb                _add_device
00044abf                _atoi
00044bbc                _auto_init
00044d64                _c_int00
00042492                _calloc
0004248a                _chkheap
00041978                _close
00043255                _disable_i2s0
00043263                _disable_i2s1
00043271                _disable_i2s2
0004327f                _disable_i2s3
00042790                _enable_dma_int
0004321d                _enable_i2s0
0004322b                _enable_i2s1
00043239                _enable_i2s2
00043247                _enable_i2s3
00044d26                _exit
00044734                _fclose
000443a2                _fflush
0004196f                _find_registered_device
000434d1                _fopen
00044570                _fputc
00043dff                _fputs
00042003                _free
00042434                _free_memory
00043408                _freopen
000449ed                _fseek
00041adb                _getenv
00042ff5                _i2s0_read_CR
0004303d                _i2s0_read_INTR
00043043                _i2s0_read_INT_MASK
0004304f                _i2s0_read_RXL_LSW
0004305b                _i2s0_read_RXL_MSW
00043067                _i2s0_read_RXR_LSW
00043073                _i2s0_read_RXR_MSW
00043001                _i2s0_read_SRGR
0004300d                _i2s0_read_TXL_LSW
00043019                _i2s0_read_TXL_MSW
00043025                _i2s0_read_TXR_LSW
00043031                _i2s0_read_TXR_MSW
00042ffb                _i2s0_write_CR
00043049                _i2s0_write_INT_MASK
00043055                _i2s0_write_RXL_LSW
00043061                _i2s0_write_RXL_MSW
0004306d                _i2s0_write_RXR_LSW
00043079                _i2s0_write_RXR_MSW
00043007                _i2s0_write_SRGR
00043013                _i2s0_write_TXL_LSW
0004301f                _i2s0_write_TXL_MSW
0004302b                _i2s0_write_TXR_LSW
00043037                _i2s0_write_TXR_MSW
0004307f                _i2s1_read_CR
000430c7                _i2s1_read_INTR
000430cd                _i2s1_read_INT_MASK
000430d9                _i2s1_read_RXL_LSW
000430e5                _i2s1_read_RXL_MSW
000430f1                _i2s1_read_RXR_LSW
000430fd                _i2s1_read_RXR_MSW
0004308b                _i2s1_read_SRGR
00043097                _i2s1_read_TXL_LSW
000430a3                _i2s1_read_TXL_MSW
000430af                _i2s1_read_TXR_LSW
000430bb                _i2s1_read_TXR_MSW
00043085                _i2s1_write_CR
000430d3                _i2s1_write_INT_MASK
000430df                _i2s1_write_RXL_LSW
000430eb                _i2s1_write_RXL_MSW
000430f7                _i2s1_write_RXR_LSW
00043103                _i2s1_write_RXR_MSW
00043091                _i2s1_write_SRGR
0004309d                _i2s1_write_TXL_LSW
000430a9                _i2s1_write_TXL_MSW
000430b5                _i2s1_write_TXR_LSW
000430c1                _i2s1_write_TXR_MSW
00043109                _i2s2_read_CR
00043151                _i2s2_read_INTR
00043157                _i2s2_read_INT_MASK
00043163                _i2s2_read_RXL_LSW
0004316f                _i2s2_read_RXL_MSW
0004317b                _i2s2_read_RXR_LSW
00043187                _i2s2_read_RXR_MSW
00043115                _i2s2_read_SRGR
00043121                _i2s2_read_TXL_LSW
0004312d                _i2s2_read_TXL_MSW
00043139                _i2s2_read_TXR_LSW
00043145                _i2s2_read_TXR_MSW
0004310f                _i2s2_write_CR
0004315d                _i2s2_write_INT_MASK
00043169                _i2s2_write_RXL_LSW
00043175                _i2s2_write_RXL_MSW
00043181                _i2s2_write_RXR_LSW
0004318d                _i2s2_write_RXR_MSW
0004311b                _i2s2_write_SRGR
00043127                _i2s2_write_TXL_LSW
00043133                _i2s2_write_TXL_MSW
0004313f                _i2s2_write_TXR_LSW
0004314b                _i2s2_write_TXR_MSW
00043193                _i2s3_read_CR
000431db                _i2s3_read_INTR
000431e1                _i2s3_read_INT_MASK
000431ed                _i2s3_read_RXL_LSW
000431f9                _i2s3_read_RXL_MSW
00043205                _i2s3_read_RXR_LSW
00043211                _i2s3_read_RXR_MSW
0004319f                _i2s3_read_SRGR
000431ab                _i2s3_read_TXL_LSW
000431b7                _i2s3_read_TXL_MSW
000431c3                _i2s3_read_TXR_LSW
000431cf                _i2s3_read_TXR_MSW
00043199                _i2s3_write_CR
000431e7                _i2s3_write_INT_MASK
000431f3                _i2s3_write_RXL_LSW
000431ff                _i2s3_write_RXL_MSW
0004320b                _i2s3_write_RXR_LSW
00043217                _i2s3_write_RXR_MSW
000431a5                _i2s3_write_SRGR
000431b1                _i2s3_write_TXL_LSW
000431bd                _i2s3_write_TXL_MSW
000431c9                _i2s3_write_TXR_LSW
000431d5                _i2s3_write_TXR_MSW
000443fb                _initRand
            00004570    _leftChannel
00043ac1                _leftChannel_process
00041909                _lseek
000446b7                _ltoa
000439c3                _main
00042134                _malloc
000423da                _max_free
00044dec                _memccpy
00044ce7                _memcpy
000420cf                _minit
0004184a                _open
00043b57                _playAudio
00044b6c                _printf
00044570                _putc
00044607                _putchar
00043f34                _puts
00044414                _randNumber1
00044474                _randNumber2
0004179c                _read
00044980                _readmsg
00042229                _realloc
00044e74                _remove
00041766                _remove_device
0004170d                _rename
            00004571    _rightChannel
00043b27                _rightChannel_process
000424b8                _setDMA_address
00042618                _set_dma0_ch0_i2s0_Lout
000425c0                _set_dma0_ch0_stop
00042676                _set_dma0_ch1_i2s0_Rout
000425d6                _set_dma0_ch1_stop
000426d4                _set_dma0_ch2_i2s0_Lin
000425ec                _set_dma0_ch2_stop
00042732                _set_dma0_ch3_i2s0_Rin
00042602                _set_dma0_ch3_stop
00044b1b                _set_i2s0_master
00044b4a                _set_i2s0_slave
000440ae                _setvbuf
000416da                _unlink
00041598                _write
000444b6                _writemsg
ffffffff                binit
            00022a3c    cinit
            00002000    edata
            00004587    end
00044e88                etext
ffffffff                pinit
000447b0                reset_isr


GLOBAL SYMBOLS: SORTED BY Symbol Address 

abs. value/
byte addr   word addr   name
---------   ---------   ----
00000001                $TI_capability_requires_rev3
00000002                $TI_capability$C5500$CallingConvention
00000002                $TI_capability$C5500$MemoryModel
000000c0                _Reset
00000100                __SYSSTACK_SIZE
            000000e0    __sys_memory
00000200                __STACK_SIZE
00002000                __SYSMEM_SIZE
            000010e0    __stack
            000011e0    __STACK_END
            000011e0    __sysstack
            00002000    .data
00004000                _RST
            00002000    ___data__
            00002000    ___edata__
            00002000    edata
            00004000    .bss
            00004000    _XmitL1
            00004000    ___bss__
            00004060    _XmitR1
            000040c0    _XmitL2
            00004120    _XmitR2
            00004180    _RcvL1
            000041e0    _RcvR1
            00004240    _RcvL2
            000042a0    _RcvR2
            00004300    __ftable
            00004378    __tmpnams
            00004418    __ft_end
            000044e9    _Buf_Address
            0000455c    _RxL1_DMA_address
            0000455e    _RxL2_DMA_address
            00004560    _RxR1_DMA_address
            00004562    _RxR2_DMA_address
            00004564    _TxL1_DMA_address
            00004566    _TxL2_DMA_address
            00004568    _TxR1_DMA_address
            0000456a    _TxR2_DMA_address
            0000456c    _CurrentRxL_DMAChannel
            0000456d    _CurrentRxR_DMAChannel
            0000456e    _CurrentTxL_DMAChannel
            0000456f    _CurrentTxR_DMAChannel
            00004570    _leftChannel
            00004571    _rightChannel
            00004578    __lock
            0000457a    __unlock
            0000457c    __cleanup_ptr
            0000457e    __dtors_ptr
            00004587    ___end__
            00004587    end
00040000                .text
00040000                ___text__
00041356                __printfi
00041598                _write
000416da                _unlink
0004170d                _rename
00041766                _remove_device
0004179c                _read
0004184a                _open
00041909                _lseek
0004196f                _find_registered_device
00041978                _close
000419eb                _add_device
00041adb                _getenv
00041b56                _HOSTwrite
00041be3                _HOSTunlink
00041c4d                _HOSTtime
00041cab                _HOSTrename
00041d59                _HOSTread
00041de6                _HOSTopen
00041e85                _HOSTlseek
00041f3a                _HOSTclose
00041fa5                _HOSTclock
00042003                _free
000420cf                _minit
00042134                _malloc
00042229                _realloc
000423da                _max_free
00042434                _free_memory
0004248a                _chkheap
00042492                _calloc
000424b8                _setDMA_address
000425c0                _set_dma0_ch0_stop
000425d6                _set_dma0_ch1_stop
000425ec                _set_dma0_ch2_stop
00042602                _set_dma0_ch3_stop
00042618                _set_dma0_ch0_i2s0_Lout
00042676                _set_dma0_ch1_i2s0_Rout
000426d4                _set_dma0_ch2_i2s0_Lin
00042732                _set_dma0_ch3_i2s0_Rin
00042790                _enable_dma_int
0004279d                _DMA_Isr
0004297d                __divd
00042cc7                _AIC3204_init
00042ff5                _i2s0_read_CR
00042ffb                _i2s0_write_CR
00043001                _i2s0_read_SRGR
00043007                _i2s0_write_SRGR
0004300d                _i2s0_read_TXL_LSW
00043013                _i2s0_write_TXL_LSW
00043019                _i2s0_read_TXL_MSW
0004301f                _i2s0_write_TXL_MSW
00043025                _i2s0_read_TXR_LSW
0004302b                _i2s0_write_TXR_LSW
00043031                _i2s0_read_TXR_MSW
00043037                _i2s0_write_TXR_MSW
0004303d                _i2s0_read_INTR
00043043                _i2s0_read_INT_MASK
00043049                _i2s0_write_INT_MASK
0004304f                _i2s0_read_RXL_LSW
00043055                _i2s0_write_RXL_LSW
0004305b                _i2s0_read_RXL_MSW
00043061                _i2s0_write_RXL_MSW
00043067                _i2s0_read_RXR_LSW
0004306d                _i2s0_write_RXR_LSW
00043073                _i2s0_read_RXR_MSW
00043079                _i2s0_write_RXR_MSW
0004307f                _i2s1_read_CR
00043085                _i2s1_write_CR
0004308b                _i2s1_read_SRGR
00043091                _i2s1_write_SRGR
00043097                _i2s1_read_TXL_LSW
0004309d                _i2s1_write_TXL_LSW
000430a3                _i2s1_read_TXL_MSW
000430a9                _i2s1_write_TXL_MSW
000430af                _i2s1_read_TXR_LSW
000430b5                _i2s1_write_TXR_LSW
000430bb                _i2s1_read_TXR_MSW
000430c1                _i2s1_write_TXR_MSW
000430c7                _i2s1_read_INTR
000430cd                _i2s1_read_INT_MASK
000430d3                _i2s1_write_INT_MASK
000430d9                _i2s1_read_RXL_LSW
000430df                _i2s1_write_RXL_LSW
000430e5                _i2s1_read_RXL_MSW
000430eb                _i2s1_write_RXL_MSW
000430f1                _i2s1_read_RXR_LSW
000430f7                _i2s1_write_RXR_LSW
000430fd                _i2s1_read_RXR_MSW
00043103                _i2s1_write_RXR_MSW
00043109                _i2s2_read_CR
0004310f                _i2s2_write_CR
00043115                _i2s2_read_SRGR
0004311b                _i2s2_write_SRGR
00043121                _i2s2_read_TXL_LSW
00043127                _i2s2_write_TXL_LSW
0004312d                _i2s2_read_TXL_MSW
00043133                _i2s2_write_TXL_MSW
00043139                _i2s2_read_TXR_LSW
0004313f                _i2s2_write_TXR_LSW
00043145                _i2s2_read_TXR_MSW
0004314b                _i2s2_write_TXR_MSW
00043151                _i2s2_read_INTR
00043157                _i2s2_read_INT_MASK
0004315d                _i2s2_write_INT_MASK
00043163                _i2s2_read_RXL_LSW
00043169                _i2s2_write_RXL_LSW
0004316f                _i2s2_read_RXL_MSW
00043175                _i2s2_write_RXL_MSW
0004317b                _i2s2_read_RXR_LSW
00043181                _i2s2_write_RXR_LSW
00043187                _i2s2_read_RXR_MSW
0004318d                _i2s2_write_RXR_MSW
00043193                _i2s3_read_CR
00043199                _i2s3_write_CR
0004319f                _i2s3_read_SRGR
000431a5                _i2s3_write_SRGR
000431ab                _i2s3_read_TXL_LSW
000431b1                _i2s3_write_TXL_LSW
000431b7                _i2s3_read_TXL_MSW
000431bd                _i2s3_write_TXL_MSW
000431c3                _i2s3_read_TXR_LSW
000431c9                _i2s3_write_TXR_LSW
000431cf                _i2s3_read_TXR_MSW
000431d5                _i2s3_write_TXR_MSW
000431db                _i2s3_read_INTR
000431e1                _i2s3_read_INT_MASK
000431e7                _i2s3_write_INT_MASK
000431ed                _i2s3_read_RXL_LSW
000431f3                _i2s3_write_RXL_LSW
000431f9                _i2s3_read_RXL_MSW
000431ff                _i2s3_write_RXL_MSW
00043205                _i2s3_read_RXR_LSW
0004320b                _i2s3_write_RXR_LSW
00043211                _i2s3_read_RXR_MSW
00043217                _i2s3_write_RXR_MSW
0004321d                _enable_i2s0
0004322b                _enable_i2s1
00043239                _enable_i2s2
00043247                _enable_i2s3
00043255                _disable_i2s0
00043263                _disable_i2s1
00043271                _disable_i2s2
0004327f                _disable_i2s3
000433ae                __cleanup
00043408                _freopen
000434d1                _fopen
0004350c                __remull
0004355a                __remlli
00043589                __mpylli
00043641                __divull
00043735                __divlli
0004376a                __addd
000439c3                _main
00043ac1                _leftChannel_process
00043b27                _rightChannel_process
00043b57                _playAudio
00043c15                __neqd
00043c49                __lssd
00043c91                __leqd
00043cde                __gtrd
00043d29                __geqd
00043d73                __eqld
00043da7                __cmpd
00043dff                _fputs
00043f34                _puts
00043f62                __mpyd
000440ae                _setvbuf
00044194                __wrt_ok
00044214                __rd_ok
00044271                __frcmpyd_div
00044339                __doflush
000443a2                _fflush
000443fb                _initRand
00044414                _randNumber1
00044474                _randNumber2
000444b6                _writemsg
0004456b                C$$IO$$
00044570                _fputc
00044570                _putc
00044607                _putchar
00044616                __divul
000446b7                _ltoa
00044734                _fclose
000447b0                reset_isr
00044829                __frcmpyd
0004489f                __remul
00044911                __fixdli
00044980                _readmsg
000449ed                _fseek
00044a58                __fltlid
00044abf                _atoi
00044b1b                _set_i2s0_master
00044b4a                _set_i2s0_slave
00044b6c                _printf
00044bbc                _auto_init
00044c09                __args_main
00044c54                __remli
00044c9f                __divli
00044ce7                _memcpy
00044d26                _exit
00044d64                _c_int00
00044d98                __fixdi
00044dc2                I$$UDIV
00044dc2                __divu
00044dd7                I$$UMOD
00044dd7                __remu
00044dec                _memccpy
00044e0f                ___isinf
00044e2b                __subd
00044e3f                I$$LMPY
00044e3f                __mpyli
00044e52                __register_unlock
00044e5a                __register_lock
00044e62                __nop
00044e64                __negd
00044e74                _remove
00044e7e                _abort
00044e7f                C$$EXIT
00044e88                ___etext__
            00022744    __ctypes_
00044e88                etext
            0002291c    __CIOBUF_
            00022a3c    ___cinit__
            00022a3c    cinit
ffffffff                ___binit__
ffffffff                ___c_args__
ffffffff                ___pinit__
ffffffff                binit
ffffffff                pinit

[280 symbols]
